target datalayout = "e-m:e-p270:32:32-p271:32:32-p272:64:64-i64:64-i128:128-f80:128-n8:16:32:64-S128"
target triple = "x86_64-pc-linux-gnu"

%struct.gmx_output_env_t = type <{ ptr, i32, i8, [3 x i8], i32, i32, i32, [4 x i8] }>

@_ZTISt9exception = external constant ptr

; Function Attrs: mustprogress uwtable
define noundef ptr @_Z35output_env_get_program_display_namePK16gmx_output_env_t(ptr noundef %0) #0 personality ptr @__gxx_personality_v0 {
  %2 = alloca ptr, align 8
  %3 = alloca ptr, align 8
  %4 = alloca ptr, align 8
  %5 = alloca i32, align 4
  %6 = alloca ptr, align 8
  store ptr %0, ptr %2, align 8, !tbaa !20
  call void @llvm.lifetime.start.p0(i64 8, ptr %3) #14
  store ptr null, ptr %3, align 8, !tbaa !29
  %7 = load ptr, ptr %2, align 8, !tbaa !20
  %8 = getelementptr inbounds nuw %struct.gmx_output_env_t, ptr %7, i32 0, i32 0
  %9 = load ptr, ptr %8, align 8, !tbaa !68
  %10 = load ptr, ptr %9, align 8, !tbaa !69
  %11 = getelementptr inbounds ptr, ptr %10, i64 1
  %12 = load ptr, ptr %11, align 8
  %13 = invoke noundef ptr %12(ptr noundef nonnull align 8 dereferenceable(8) %9)
          to label %14 unwind label %15

14:                                               ; preds = %1
  store ptr %13, ptr %3, align 8, !tbaa !29
  br label %33

15:                                               ; preds = %1
  %16 = landingpad { ptr, i32 }
          cleanup
          catch ptr @_ZTISt9exception
  %17 = extractvalue { ptr, i32 } %16, 0
  store ptr %17, ptr %4, align 8
  %18 = extractvalue { ptr, i32 } %16, 1
  store i32 %18, ptr %5, align 4
  br label %19

19:                                               ; preds = %15
  %20 = load i32, ptr %5, align 4
  %21 = call i32 @llvm.eh.typeid.for.p0(ptr @_ZTISt9exception) #14
  %22 = icmp eq i32 %20, %21
  br i1 %22, label %23, label %35

23:                                               ; preds = %19
  call void @llvm.lifetime.start.p0(i64 8, ptr %6) #14
  %24 = load ptr, ptr %4, align 8
  %25 = call ptr @__cxa_begin_catch(ptr %24) #14
  store ptr %25, ptr %6, align 8
  %26 = load ptr, ptr %6, align 8, !tbaa !32
  invoke void @_ZN3gmx28processExceptionAsFatalErrorERKSt9exception(ptr noundef nonnull align 8 dereferenceable(8) %26) #17
          to label %27 unwind label %28

27:                                               ; preds = %23
  unreachable

28:                                               ; preds = %23
  %29 = landingpad { ptr, i32 }
          cleanup
  %30 = extractvalue { ptr, i32 } %29, 0
  store ptr %30, ptr %4, align 8
  %31 = extractvalue { ptr, i32 } %29, 1
  store i32 %31, ptr %5, align 4
  invoke void @__cxa_end_catch()
          to label %32 unwind label %41

32:                                               ; preds = %28
  call void @llvm.lifetime.end.p0(i64 8, ptr %6) #14
  br label %35

33:                                               ; preds = %14
  %34 = load ptr, ptr %3, align 8, !tbaa !29
  call void @llvm.lifetime.end.p0(i64 8, ptr %3) #14
  ret ptr %34

35:                                               ; preds = %32, %19
  call void @llvm.lifetime.end.p0(i64 8, ptr %3) #14
  br label %36

36:                                               ; preds = %35
  %37 = load ptr, ptr %4, align 8
  %38 = load i32, ptr %5, align 4
  %39 = insertvalue { ptr, i32 } poison, ptr %37, 0
  %40 = insertvalue { ptr, i32 } %39, i32 %38, 1
  resume { ptr, i32 } %40

41:                                               ; preds = %28
  %42 = landingpad { ptr, i32 }
          catch ptr null
  %43 = extractvalue { ptr, i32 } %42, 0
  call void @__clang_call_terminate(ptr %43) #18
  unreachable
}