; Function Attrs: mustprogress uwtable
define noundef ptr @_Z35output_env_get_program_display_namePK16gmx_output_env_t(ptr noundef readonly captures(none) %0) local_unnamed_addr #0 personality ptr @__gxx_personality_v0 {
  %2 = load ptr, ptr %0, align 8, !tbaa !37
  %3 = load ptr, ptr %2, align 8, !tbaa !38
  %4 = getelementptr inbounds nuw i8, ptr %3, i64 8
  %5 = load ptr, ptr %4, align 8
  %6 = invoke noundef ptr %5(ptr noundef nonnull align 8 dereferenceable(8) %2)
          to label %7 unwind label %8

7:                                                ; preds = %1
  ret ptr %6

8:                                                ; preds = %1
  %9 = landingpad { ptr, i32 }
          cleanup
          catch ptr @_ZTISt9exception
  %10 = extractvalue { ptr, i32 } %9, 1
  %11 = tail call i32 @llvm.eh.typeid.for.p0(ptr nonnull @_ZTISt9exception) #17
  %12 = icmp eq i32 %10, %11
  br i1 %12, label %13, label %19

13:                                               ; preds = %8
  %14 = extractvalue { ptr, i32 } %9, 0
  %15 = tail call ptr @__cxa_begin_catch(ptr %14) #17
  invoke void @_ZN3gmx28processExceptionAsFatalErrorERKSt9exception(ptr noundef nonnull align 8 dereferenceable(8) %15) #18
          to label %16 unwind label %17

16:                                               ; preds = %13
  unreachable

17:                                               ; preds = %13
  %18 = landingpad { ptr, i32 }
          cleanup
  invoke void @__cxa_end_catch()
          to label %19 unwind label %20

19:                                               ; preds = %17, %8
  %.merged = phi { ptr, i32 } [ %9, %8 ], [ %18, %17 ]
  resume { ptr, i32 } %.merged

20:                                               ; preds = %17
  %21 = landingpad { ptr, i32 }
          catch ptr null
  %22 = extractvalue { ptr, i32 } %21, 0
  tail call void @__clang_call_terminate(ptr %22) #19
  unreachable
}